target datalayout = "e-m:e-p270:32:32-p271:32:32-p272:64:64-i64:64-i128:128-f80:128-n8:16:32:64-S128"
target triple = "x86_64-pc-linux-gnu"

%struct.gmx_ana_selvalue_t = type { i32, i32, %union.anon, i32 }
%union.anon = type { ptr }

; Function Attrs: mustprogress nounwind uwtable
define void @_Z34_gmx_selvalue_getstore_and_releaseP18gmx_ana_selvalue_tPPvPi(ptr noundef %0, ptr noundef %1, ptr noundef %2) #0 {
  %4 = alloca ptr, align 8
  %5 = alloca ptr, align 8
  %6 = alloca ptr, align 8
  store ptr %0, ptr %4, align 8, !tbaa !4
  store ptr %1, ptr %5, align 8, !tbaa !43
  store ptr %2, ptr %6, align 8, !tbaa !28
  %7 = load ptr, ptr %4, align 8, !tbaa !4
  %8 = getelementptr inbounds nuw %struct.gmx_ana_selvalue_t, ptr %7, i32 0, i32 2
  %9 = load ptr, ptr %8, align 8, !tbaa !13
  %10 = load ptr, ptr %5, align 8, !tbaa !43
  store ptr %9, ptr %10, align 8, !tbaa !19
  %11 = load ptr, ptr %4, align 8, !tbaa !4
  %12 = getelementptr inbounds nuw %struct.gmx_ana_selvalue_t, ptr %11, i32 0, i32 3
  %13 = load i32, ptr %12, align 8, !tbaa !14
  %14 = load ptr, ptr %6, align 8, !tbaa !28
  store i32 %13, ptr %14, align 4, !tbaa !18
  %15 = load ptr, ptr %4, align 8, !tbaa !4
  %16 = getelementptr inbounds nuw %struct.gmx_ana_selvalue_t, ptr %15, i32 0, i32 2
  store ptr null, ptr %16, align 8, !tbaa !13
  %17 = load ptr, ptr %4, align 8, !tbaa !4
  %18 = getelementptr inbounds nuw %struct.gmx_ana_selvalue_t, ptr %17, i32 0, i32 3
  store i32 0, ptr %18, align 8, !tbaa !14
  ret void
}