; Function Attrs: mustprogress nofree norecurse nosync nounwind willreturn memory(argmem: readwrite) uwtable
define void @_Z34_gmx_selvalue_getstore_and_releaseP18gmx_ana_selvalue_tPPvPi(ptr noundef captures(none) %0, ptr noundef writeonly captures(none) initializes((0, 8)) %1, ptr noundef writeonly captures(none) initializes((0, 4)) %2) local_unnamed_addr #8 {
  %4 = getelementptr inbounds nuw i8, ptr %0, i64 8
  %5 = load ptr, ptr %4, align 8, !tbaa !11
  store ptr %5, ptr %1, align 8, !tbaa !23
  %6 = getelementptr inbounds nuw i8, ptr %0, i64 16
  %7 = load i32, ptr %6, align 8, !tbaa !4
  store i32 %7, ptr %2, align 4, !tbaa !24
  store ptr null, ptr %4, align 8, !tbaa !11
  store i32 0, ptr %6, align 8, !tbaa !4
  ret void
}